; Function Attrs: nofree norecurse nosync nounwind memory(argmem: readwrite) uwtable
define internal void @put_rv30_tpel8_mc11_c(ptr noundef writeonly captures(none) %0, ptr noundef readonly captures(none) %1, i64 noundef %2) #3 {
  %4 = trunc i64 %2 to i32
  %5 = shl nsw i32 %4, 1
  %sext = shl i64 %2, 32
  %6 = ashr exact i64 %sext, 32
  %7 = sext i32 %5 to i64
  br label %.preheader.i

.preheader.i:                                     ; preds = %72, %3
  %.077.i = phi i32 [ 0, %3 ], [ %74, %72 ]
  %.05976.i = phi ptr [ %0, %3 ], [ %73, %72 ]
  %.06075.i = phi ptr [ %1, %3 ], [ %invariant.gep.i, %72 ]
  %invariant.gep.i = getelementptr i8, ptr %.06075.i, i64 %6
  %invariant.gep80.i = getelementptr i8, ptr %.06075.i, i64 %7
  br label %8

8:                                                ; preds = %8, %.preheader.i
  %indvars.iv.i = phi i64 [ 0, %.preheader.i ], [ %indvars.iv.next.i, %8 ]
  %9 = sub nsw i64 %indvars.iv.i, %6
  %10 = getelementptr i8, ptr %.06075.i, i64 %9
  %11 = getelementptr i8, ptr %10, i64 -1
  %12 = load i8, ptr %11, align 1, !tbaa !8
  %13 = zext i8 %12 to i32
  %14 = load i8, ptr %10, align 1, !tbaa !8
  %15 = zext i8 %14 to i32
  %16 = getelementptr i8, ptr %10, i64 1
  %17 = load i8, ptr %16, align 1, !tbaa !8
  %18 = zext i8 %17 to i32
  %19 = getelementptr i8, ptr %10, i64 2
  %20 = load i8, ptr %19, align 1, !tbaa !8
  %21 = zext i8 %20 to i32
  %22 = getelementptr i8, ptr %.06075.i, i64 %indvars.iv.i
  %23 = getelementptr i8, ptr %22, i64 -1
  %24 = load i8, ptr %23, align 1, !tbaa !8
  %25 = zext i8 %24 to i32
  %26 = load i8, ptr %22, align 1, !tbaa !8
  %27 = zext i8 %26 to i32
  %28 = mul nuw nsw i32 %27, 144
  %indvars.iv.next.i = add nuw nsw i64 %indvars.iv.i, 1
  %29 = getelementptr inbounds nuw i8, ptr %.06075.i, i64 %indvars.iv.next.i
  %30 = load i8, ptr %29, align 1, !tbaa !8
  %31 = zext i8 %30 to i32
  %32 = getelementptr inbounds nuw i8, ptr %22, i64 2
  %33 = load i8, ptr %32, align 1, !tbaa !8
  %34 = zext i8 %33 to i32
  %gep.i = getelementptr i8, ptr %invariant.gep.i, i64 %indvars.iv.i
  %35 = getelementptr i8, ptr %gep.i, i64 -1
  %36 = load i8, ptr %35, align 1, !tbaa !8
  %37 = zext i8 %36 to i32
  %38 = load i8, ptr %gep.i, align 1, !tbaa !8
  %39 = zext i8 %38 to i32
  %40 = getelementptr i8, ptr %gep.i, i64 1
  %41 = load i8, ptr %40, align 1, !tbaa !8
  %42 = zext i8 %41 to i32
  %43 = mul nuw nsw i32 %42, 36
  %44 = getelementptr i8, ptr %gep.i, i64 2
  %45 = load i8, ptr %44, align 1, !tbaa !8
  %46 = zext i8 %45 to i32
  %gep81.i = getelementptr i8, ptr %invariant.gep80.i, i64 %indvars.iv.i
  %47 = getelementptr i8, ptr %gep81.i, i64 -1
  %48 = load i8, ptr %47, align 1, !tbaa !8
  %49 = zext i8 %48 to i32
  %50 = load i8, ptr %gep81.i, align 1, !tbaa !8
  %51 = zext i8 %50 to i32
  %52 = getelementptr i8, ptr %gep81.i, i64 1
  %53 = load i8, ptr %52, align 1, !tbaa !8
  %54 = zext i8 %53 to i32
  %55 = getelementptr i8, ptr %gep81.i, i64 2
  %56 = load i8, ptr %55, align 1, !tbaa !8
  %57 = zext i8 %56 to i32
  %reass.add.i = add nuw nsw i32 %37, %18
  %reass.add66.i = add nuw nsw i32 %reass.add.i, %46
  %reass.add67.i = add nuw nsw i32 %reass.add66.i, %54
  %reass.mul.i = mul nsw i32 %reass.add67.i, -6
  %reass.add68.i = add nuw nsw i32 %25, %15
  %reass.add69.i = add nuw nsw i32 %reass.add68.i, %34
  %reass.add70.i = add nuw nsw i32 %reass.add69.i, %51
  %reass.mul71.i = mul nsw i32 %reass.add70.i, -12
  %reass.add72.i = add nuw nsw i32 %39, %31
  %reass.mul73.i = mul nuw nsw i32 %reass.add72.i, 72
  %58 = add nuw nsw i32 %13, 128
  %59 = add nuw nsw i32 %58, %21
  %60 = add nuw nsw i32 %59, %28
  %61 = add nuw nsw i32 %60, %43
  %62 = add nuw nsw i32 %61, %reass.mul73.i
  %63 = add nuw nsw i32 %62, %49
  %64 = add nuw nsw i32 %63, %57
  %65 = add nsw i32 %64, %reass.mul71.i
  %66 = add nsw i32 %65, %reass.mul.i
  %67 = ashr i32 %66, 8
  %68 = sext i32 %67 to i64
  %69 = getelementptr inbounds i8, ptr getelementptr inbounds nuw (i8, ptr @ff_crop_tab, i64 1024), i64 %68
  %70 = load i8, ptr %69, align 1, !tbaa !8
  %71 = getelementptr inbounds nuw i8, ptr %.05976.i, i64 %indvars.iv.i
  store i8 %70, ptr %71, align 1, !tbaa !8
  %exitcond.not.i = icmp eq i64 %indvars.iv.next.i, 8
  br i1 %exitcond.not.i, label %72, label %8, !llvm.loop !9

72:                                               ; preds = %8
  %73 = getelementptr inbounds i8, ptr %.05976.i, i64 %6
  %74 = add nuw nsw i32 %.077.i, 1
  %exitcond79.not.i = icmp eq i32 %74, 8
  br i1 %exitcond79.not.i, label %put_rv30_tpel8_hv_lowpass.exit, label %.preheader.i, !llvm.loop !11

put_rv30_tpel8_hv_lowpass.exit:                   ; preds = %72
  ret void
}